; ModuleID = '49/281.c'
source_filename = "49/281.c"
target datalayout = "e-m:e-p270:32:32-p271:32:32-p272:64:64-i64:64-f80:128-n8:16:32:64-S128"
target triple = "x86_64-pc-linux-gnu"

@.str = private unnamed_addr constant [3 x i8] c"%c\00", align 1
@.str.1 = private unnamed_addr constant [2 x i8] c"\0A\00", align 1

; Function Attrs: noinline nounwind uwtable
define dso_local void @main() #0 {
  %1 = alloca i32, align 4
  %2 = alloca i32, align 4
  %3 = alloca i32, align 4
  %4 = alloca i32, align 4
  %5 = alloca [200 x i8], align 16
  %6 = alloca i32, align 4
  store i32 0, i32* %1, align 4
  %7 = getelementptr inbounds [200 x i8], [200 x i8]* %5, i64 0, i64 0
  %8 = call i32 (i8*, ...) bitcast (i32 (...)* @gets to i32 (i8*, ...)*)(i8* %7)
  store i32 0, i32* %2, align 4
  br label %9

9:                                                ; preds = %19, %0
  %10 = load i32, i32* %2, align 4
  %11 = sext i32 %10 to i64
  %12 = getelementptr inbounds [200 x i8], [200 x i8]* %5, i64 0, i64 %11
  %13 = load i8, i8* %12, align 1
  %14 = sext i8 %13 to i32
  %15 = icmp ne i32 %14, 0
  br i1 %15, label %16, label %22

16:                                               ; preds = %9
  %17 = load i32, i32* %1, align 4
  %18 = add nsw i32 %17, 1
  store i32 %18, i32* %1, align 4
  br label %19

19:                                               ; preds = %16
  %20 = load i32, i32* %2, align 4
  %21 = add nsw i32 %20, 1
  store i32 %21, i32* %2, align 4
  br label %9

22:                                               ; preds = %9
  store i32 2, i32* %2, align 4
  br label %23

23:                                               ; preds = %92, %22
  %24 = load i32, i32* %2, align 4
  %25 = load i32, i32* %1, align 4
  %26 = icmp sle i32 %24, %25
  br i1 %26, label %27, label %95

27:                                               ; preds = %23
  store i32 0, i32* %3, align 4
  br label %28

28:                                               ; preds = %88, %27
  %29 = load i32, i32* %3, align 4
  %30 = load i32, i32* %1, align 4
  %31 = load i32, i32* %2, align 4
  %32 = sub nsw i32 %30, %31
  %33 = icmp sle i32 %29, %32
  br i1 %33, label %34, label %91

34:                                               ; preds = %28
  store i32 1, i32* %6, align 4
  store i32 0, i32* %4, align 4
  br label %35

35:                                               ; preds = %60, %34
  %36 = load i32, i32* %4, align 4
  %37 = load i32, i32* %2, align 4
  %38 = icmp slt i32 %36, %37
  br i1 %38, label %39, label %63

39:                                               ; preds = %35
  %40 = load i32, i32* %3, align 4
  %41 = load i32, i32* %4, align 4
  %42 = add nsw i32 %40, %41
  %43 = sext i32 %42 to i64
  %44 = getelementptr inbounds [200 x i8], [200 x i8]* %5, i64 0, i64 %43
  %45 = load i8, i8* %44, align 1
  %46 = sext i8 %45 to i32
  %47 = load i32, i32* %3, align 4
  %48 = load i32, i32* %2, align 4
  %49 = add nsw i32 %47, %48
  %50 = sub nsw i32 %49, 1
  %51 = load i32, i32* %4, align 4
  %52 = sub nsw i32 %50, %51
  %53 = sext i32 %52 to i64
  %54 = getelementptr inbounds [200 x i8], [200 x i8]* %5, i64 0, i64 %53
  %55 = load i8, i8* %54, align 1
  %56 = sext i8 %55 to i32
  %57 = icmp ne i32 %46, %56
  br i1 %57, label %58, label %59

58:                                               ; preds = %39
  store i32 0, i32* %6, align 4
  br label %59

59:                                               ; preds = %58, %39
  br label %60

60:                                               ; preds = %59
  %61 = load i32, i32* %4, align 4
  %62 = add nsw i32 %61, 1
  store i32 %62, i32* %4, align 4
  br label %35

63:                                               ; preds = %35
  %64 = load i32, i32* %6, align 4
  %65 = icmp ne i32 %64, 0
  br i1 %65, label %66, label %87

66:                                               ; preds = %63
  %67 = load i32, i32* %3, align 4
  store i32 %67, i32* %4, align 4
  br label %68

68:                                               ; preds = %82, %66
  %69 = load i32, i32* %4, align 4
  %70 = load i32, i32* %2, align 4
  %71 = load i32, i32* %3, align 4
  %72 = add nsw i32 %70, %71
  %73 = sub nsw i32 %72, 1
  %74 = icmp sle i32 %69, %73
  br i1 %74, label %75, label %85

75:                                               ; preds = %68
  %76 = load i32, i32* %4, align 4
  %77 = sext i32 %76 to i64
  %78 = getelementptr inbounds [200 x i8], [200 x i8]* %5, i64 0, i64 %77
  %79 = load i8, i8* %78, align 1
  %80 = sext i8 %79 to i32
  %81 = call i32 (i8*, ...) @printf(i8* getelementptr inbounds ([3 x i8], [3 x i8]* @.str, i64 0, i64 0), i32 %80)
  br label %82

82:                                               ; preds = %75
  %83 = load i32, i32* %4, align 4
  %84 = add nsw i32 %83, 1
  store i32 %84, i32* %4, align 4
  br label %68

85:                                               ; preds = %68
  %86 = call i32 (i8*, ...) @printf(i8* getelementptr inbounds ([2 x i8], [2 x i8]* @.str.1, i64 0, i64 0))
  br label %87

87:                                               ; preds = %85, %63
  br label %88

88:                                               ; preds = %87
  %89 = load i32, i32* %3, align 4
  %90 = add nsw i32 %89, 1
  store i32 %90, i32* %3, align 4
  br label %28

91:                                               ; preds = %28
  br label %92

92:                                               ; preds = %91
  %93 = load i32, i32* %2, align 4
  %94 = add nsw i32 %93, 1
  store i32 %94, i32* %2, align 4
  br label %23

95:                                               ; preds = %23
  ret void
}

declare dso_local i32 @gets(...) #1

declare dso_local i32 @printf(i8*, ...) #1


!llvm.module.flags = !{!0}
!llvm.ident = !{!1}

!0 = !{i32 1, !"wchar_size", i32 4}
!1 = !{!"clang version 10.0.0-4ubuntu1 "}
